; Function Attrs: mustprogress nofree norecurse nosync nounwind willreturn memory(argmem: write) uwtable
define void @Ssw_RarSetDefaultParams(ptr noundef writeonly captures(none) initializes((0, 96)) %0) local_unnamed_addr #0 {
  %2 = getelementptr inbounds nuw i8, ptr %0, i64 48
  tail call void @llvm.memset.p0.i64(ptr noundef nonnull align 8 dereferenceable(96) %2, i8 0, i64 48, i1 false)
  store i32 20, ptr %0, align 8, !tbaa !3
  %3 = getelementptr inbounds nuw i8, ptr %0, i64 4
  store i32 50, ptr %3, align 4, !tbaa !10
  %4 = getelementptr inbounds nuw i8, ptr %0, i64 8
  store i32 8, ptr %4, align 8, !tbaa !11
  %5 = getelementptr inbounds nuw i8, ptr %0, i64 12
  tail call void @llvm.memset.p0.i64(ptr noundef nonnull align 4 dereferenceable(36) %5, i8 0, i64 36, i1 false)
  ret void
}